; Function Attrs: nounwind uwtable
define internal void @freetype_glyph_outline_free_cb(ptr noundef readonly captures(none) %0, ptr readnone captures(none) %1) #0 {
  %3 = alloca %struct._lv_event_t, align 8
  %4 = alloca %struct._lv_freetype_outline_event_param_t, align 8
  %5 = getelementptr inbounds nuw i8, ptr %0, i64 8
  %6 = load ptr, ptr %5, align 8, !tbaa !71
  %7 = tail call ptr @lv_freetype_get_context() #9
  call void @llvm.lifetime.start.p0(i64 48, ptr nonnull %4) #9
  call void @lv_memset(ptr noundef nonnull %4, i8 noundef zeroext 0, i64 noundef 48) #9
  store ptr %6, ptr %4, align 8, !tbaa !67
  %8 = getelementptr inbounds nuw i8, ptr %7, i64 32
  %9 = load ptr, ptr %8, align 8, !tbaa !59
  %.not.i.i = icmp eq ptr %9, null
  br i1 %.not.i.i, label %outline_delete.exit, label %10

10:                                               ; preds = %2
  call void @llvm.lifetime.start.p0(i64 56, ptr nonnull %3) #9
  call void @lv_memset(ptr noundef nonnull %3, i8 noundef zeroext 0, i64 noundef 56) #9
  %11 = getelementptr inbounds nuw i8, ptr %3, i64 16
  store i32 41, ptr %11, align 8, !tbaa !62
  %12 = getelementptr inbounds nuw i8, ptr %3, i64 32
  store ptr %4, ptr %12, align 8, !tbaa !65
  %13 = getelementptr inbounds nuw i8, ptr %3, i64 24
  store ptr null, ptr %13, align 8, !tbaa !66
  %14 = load ptr, ptr %8, align 8, !tbaa !59
  call void %14(ptr noundef nonnull %3) #9
  call void @llvm.lifetime.end.p0(i64 56, ptr nonnull %3) #9
  br label %outline_delete.exit

outline_delete.exit:                              ; preds = %2, %10
  call void @llvm.lifetime.end.p0(i64 48, ptr nonnull %4) #9
  ret void
}